target datalayout = "e-m:e-p270:32:32-p271:32:32-p272:64:64-i64:64-i128:128-f80:128-n8:16:32:64-S128"
target triple = "x86_64-pc-linux-gnu"

%"class.mitsuba::filesystem::path" = type <{ %"class.std::__1::vector", i8, [7 x i8] }>
%"class.std::__1::vector" = type { ptr, ptr, %"class.std::__1::__compressed_pair.2" }
%"class.std::__1::__compressed_pair.2" = type { %"struct.std::__1::__compressed_pair_elem.3" }
%"struct.std::__1::__compressed_pair_elem.3" = type { ptr }
%"class.mitsuba::MemoryMappedFile" = type { %"class.mitsuba::Object.base", %"class.std::__1::unique_ptr" }
%"class.mitsuba::Object.base" = type <{ ptr, %"struct.std::__1::atomic" }>
%"struct.std::__1::atomic" = type { %"struct.std::__1::__atomic_base" }
%"struct.std::__1::__atomic_base" = type { %"struct.std::__1::__atomic_base.0" }
%"struct.std::__1::__atomic_base.0" = type { %"struct.std::__1::__cxx_atomic_impl" }
%"struct.std::__1::__cxx_atomic_impl" = type { %"struct.std::__1::__cxx_atomic_base_impl" }
%"struct.std::__1::__cxx_atomic_base_impl" = type { i32 }
%"class.std::__1::unique_ptr" = type { %"class.std::__1::__compressed_pair" }
%"class.std::__1::__compressed_pair" = type { %"struct.std::__1::__compressed_pair_elem" }
%"struct.std::__1::__compressed_pair_elem" = type { ptr }
%"class.std::__1::basic_string" = type { %"class.std::__1::__compressed_pair.5" }
%"class.std::__1::__compressed_pair.5" = type { %"struct.std::__1::__compressed_pair_elem.6" }
%"struct.std::__1::__compressed_pair_elem.6" = type { %"struct.std::__1::basic_string<char>::__rep" }
%"struct.std::__1::basic_string<char>::__rep" = type { %union.anon }
%union.anon = type { %"struct.std::__1::basic_string<char>::__long" }
%"struct.std::__1::basic_string<char>::__long" = type { %struct.anon.7, i64, ptr }
%struct.anon.7 = type { i64 }
%"struct.mitsuba::MemoryMappedFile::MemoryMappedFilePrivate" = type <{ %"class.mitsuba::filesystem::path", i64, ptr, i8, i8, [6 x i8] }>

@_ZN7mitsuba16MemoryMappedFile7m_classE = global ptr null, align 8
@.str.1 = private unnamed_addr constant [113 x i8] c"generated/home/dtcxzyw/WorkSpace/Projects/compilers/llvm-opt-benchmark/bench/mitsuba3/mitsuba3/src/core/mmap.cpp\00", align 1
@.str.5 = private unnamed_addr constant [46 x i8] c"Internal error in MemoryMappedFile::resize()!\00", align 1

; Function Attrs: mustprogress nounwind uwtable
define linkonce_odr hidden noundef nonnull align 8 dereferenceable(8) ptr @_ZNKSt3__122__compressed_pair_elemIPN7mitsuba16MemoryMappedFile23MemoryMappedFilePrivateELi0ELb0EE5__getB8ne190000Ev(ptr noundef nonnull align 8 dereferenceable(8) %0) #1 comdat align 2 {
  %2 = alloca ptr, align 8
  store ptr %0, ptr %2, align 8
  %3 = load ptr, ptr %2, align 8
  %4 = getelementptr inbounds %"struct.std::__1::__compressed_pair_elem", ptr %3, i32 0, i32 0
  ret ptr %4
}

; Function Attrs: mustprogress nounwind uwtable
define linkonce_odr hidden noundef nonnull align 8 dereferenceable(8) ptr @_ZNKSt3__117__compressed_pairIPN7mitsuba16MemoryMappedFile23MemoryMappedFilePrivateENS_14default_deleteIS3_EEE5firstB8ne190000Ev(ptr noundef nonnull align 8 dereferenceable(8) %0) #1 comdat align 2 {
  %2 = alloca ptr, align 8
  store ptr %0, ptr %2, align 8
  %3 = load ptr, ptr %2, align 8
  %4 = call noundef nonnull align 8 dereferenceable(8) ptr @_ZNKSt3__122__compressed_pair_elemIPN7mitsuba16MemoryMappedFile23MemoryMappedFilePrivateELi0ELb0EE5__getB8ne190000Ev(ptr noundef nonnull align 8 dereferenceable(8) %3) #18
  ret ptr %4
}

; Function Attrs: mustprogress nounwind uwtable
define linkonce_odr hidden noundef ptr @_ZNKSt3__110unique_ptrIN7mitsuba16MemoryMappedFile23MemoryMappedFilePrivateENS_14default_deleteIS3_EEEptB8ne190000Ev(ptr noundef nonnull align 8 dereferenceable(8) %0) #1 comdat align 2 {
  %2 = alloca ptr, align 8
  store ptr %0, ptr %2, align 8
  %3 = load ptr, ptr %2, align 8
  %4 = getelementptr inbounds %"class.std::__1::unique_ptr", ptr %3, i32 0, i32 0
  %5 = call noundef nonnull align 8 dereferenceable(8) ptr @_ZNKSt3__117__compressed_pairIPN7mitsuba16MemoryMappedFile23MemoryMappedFilePrivateENS_14default_deleteIS3_EEE5firstB8ne190000Ev(ptr noundef nonnull align 8 dereferenceable(8) %4) #18
  %6 = load ptr, ptr %5, align 8
  ret ptr %6
}

; Function Attrs: mustprogress uwtable
define void @_ZN7mitsuba16MemoryMappedFile6resizeEm(ptr noundef nonnull align 8 dereferenceable(24) %0, i64 noundef %1) #0 align 2 personality ptr @__gxx_personality_v0 {
  %3 = alloca ptr, align 8
  %4 = alloca i64, align 8
  %5 = alloca %"class.std::__1::basic_string", align 8
  %6 = alloca ptr, align 8
  %7 = alloca i32, align 4
  %8 = alloca i8, align 1
  store ptr %0, ptr %3, align 8
  store i64 %1, ptr %4, align 8
  %9 = load ptr, ptr %3, align 8
  %10 = getelementptr inbounds %"class.mitsuba::MemoryMappedFile", ptr %9, i32 0, i32 1
  %11 = call noundef ptr @_ZNKSt3__110unique_ptrIN7mitsuba16MemoryMappedFile23MemoryMappedFilePrivateENS_14default_deleteIS3_EEEptB8ne190000Ev(ptr noundef nonnull align 8 dereferenceable(8) %10) #18
  %12 = getelementptr inbounds %"struct.mitsuba::MemoryMappedFile::MemoryMappedFilePrivate", ptr %11, i32 0, i32 2
  %13 = load ptr, ptr %12, align 8
  %14 = icmp ne ptr %13, null
  br i1 %14, label %24, label %15

15:                                               ; preds = %2
  br label %16

16:                                               ; preds = %15
  %17 = load ptr, ptr @_ZN7mitsuba16MemoryMappedFile7m_classE, align 8
  call void @_ZN10tinyformat6formatIJEEENSt3__112basic_stringIcNS1_11char_traitsIcEENS1_9allocatorIcEEEEPKcDpRKT_(ptr dead_on_unwind writable sret(%"class.std::__1::basic_string") align 8 %5, ptr noundef @.str.5)
  invoke void @_ZN7mitsuba6detail5ThrowENS_8LogLevelEPKNS_5ClassEPKciRKNSt3__112basic_stringIcNS7_11char_traitsIcEENS7_9allocatorIcEEEE(i32 noundef 400, ptr noundef %17, ptr noundef @.str.1, i32 noundef 242, ptr noundef nonnull align 8 dereferenceable(24) %5) #21
          to label %18 unwind label %19

18:                                               ; preds = %16
  unreachable

19:                                               ; preds = %16
  %20 = landingpad { ptr, i32 }
          cleanup
  %21 = extractvalue { ptr, i32 } %20, 0
  store ptr %21, ptr %6, align 8
  %22 = extractvalue { ptr, i32 } %20, 1
  store i32 %22, ptr %7, align 4
  call void @_ZNSt3__112basic_stringIcNS_11char_traitsIcEENS_9allocatorIcEEED1Ev(ptr noundef nonnull align 8 dereferenceable(24) %5) #18
  br label %53

23:                                               ; No predecessors!
  br label %24

24:                                               ; preds = %23, %2
  %25 = getelementptr inbounds %"class.mitsuba::MemoryMappedFile", ptr %9, i32 0, i32 1
  %26 = call noundef ptr @_ZNKSt3__110unique_ptrIN7mitsuba16MemoryMappedFile23MemoryMappedFilePrivateENS_14default_deleteIS3_EEEptB8ne190000Ev(ptr noundef nonnull align 8 dereferenceable(8) %25) #18
  %27 = getelementptr inbounds %"struct.mitsuba::MemoryMappedFile::MemoryMappedFilePrivate", ptr %26, i32 0, i32 4
  %28 = load i8, ptr %27, align 1
  %29 = trunc i8 %28 to i1
  %30 = zext i1 %29 to i8
  store i8 %30, ptr %8, align 1
  %31 = getelementptr inbounds %"class.mitsuba::MemoryMappedFile", ptr %9, i32 0, i32 1
  %32 = call noundef ptr @_ZNKSt3__110unique_ptrIN7mitsuba16MemoryMappedFile23MemoryMappedFilePrivateENS_14default_deleteIS3_EEEptB8ne190000Ev(ptr noundef nonnull align 8 dereferenceable(8) %31) #18
  %33 = getelementptr inbounds %"struct.mitsuba::MemoryMappedFile::MemoryMappedFilePrivate", ptr %32, i32 0, i32 4
  store i8 0, ptr %33, align 1
  %34 = getelementptr inbounds %"class.mitsuba::MemoryMappedFile", ptr %9, i32 0, i32 1
  %35 = call noundef ptr @_ZNKSt3__110unique_ptrIN7mitsuba16MemoryMappedFile23MemoryMappedFilePrivateENS_14default_deleteIS3_EEEptB8ne190000Ev(ptr noundef nonnull align 8 dereferenceable(8) %34) #18
  call void @_ZN7mitsuba16MemoryMappedFile23MemoryMappedFilePrivate5unmapEv(ptr noundef nonnull align 8 dereferenceable(50) %35)
  %36 = getelementptr inbounds %"class.mitsuba::MemoryMappedFile", ptr %9, i32 0, i32 1
  %37 = call noundef ptr @_ZNKSt3__110unique_ptrIN7mitsuba16MemoryMappedFile23MemoryMappedFilePrivateENS_14default_deleteIS3_EEEptB8ne190000Ev(ptr noundef nonnull align 8 dereferenceable(8) %36) #18
  %38 = getelementptr inbounds %"struct.mitsuba::MemoryMappedFile::MemoryMappedFilePrivate", ptr %37, i32 0, i32 0
  %39 = load i64, ptr %4, align 8
  %40 = call noundef zeroext i1 @_ZN7mitsuba10filesystem11resize_fileERKNS0_4pathEm(ptr noundef nonnull align 8 dereferenceable(25) %38, i64 noundef %39) #18
  %41 = load i64, ptr %4, align 8
  %42 = getelementptr inbounds %"class.mitsuba::MemoryMappedFile", ptr %9, i32 0, i32 1
  %43 = call noundef ptr @_ZNKSt3__110unique_ptrIN7mitsuba16MemoryMappedFile23MemoryMappedFilePrivateENS_14default_deleteIS3_EEEptB8ne190000Ev(ptr noundef nonnull align 8 dereferenceable(8) %42) #18
  %44 = getelementptr inbounds %"struct.mitsuba::MemoryMappedFile::MemoryMappedFilePrivate", ptr %43, i32 0, i32 1
  store i64 %41, ptr %44, align 8
  %45 = getelementptr inbounds %"class.mitsuba::MemoryMappedFile", ptr %9, i32 0, i32 1
  %46 = call noundef ptr @_ZNKSt3__110unique_ptrIN7mitsuba16MemoryMappedFile23MemoryMappedFilePrivateENS_14default_deleteIS3_EEEptB8ne190000Ev(ptr noundef nonnull align 8 dereferenceable(8) %45) #18
  call void @_ZN7mitsuba16MemoryMappedFile23MemoryMappedFilePrivate3mapEv(ptr noundef nonnull align 8 dereferenceable(50) %46)
  %47 = load i8, ptr %8, align 1
  %48 = trunc i8 %47 to i1
  %49 = getelementptr inbounds %"class.mitsuba::MemoryMappedFile", ptr %9, i32 0, i32 1
  %50 = call noundef ptr @_ZNKSt3__110unique_ptrIN7mitsuba16MemoryMappedFile23MemoryMappedFilePrivateENS_14default_deleteIS3_EEEptB8ne190000Ev(ptr noundef nonnull align 8 dereferenceable(8) %49) #18
  %51 = getelementptr inbounds %"struct.mitsuba::MemoryMappedFile::MemoryMappedFilePrivate", ptr %50, i32 0, i32 4
  %52 = zext i1 %48 to i8
  store i8 %52, ptr %51, align 1
  ret void

53:                                               ; preds = %19
  %54 = load ptr, ptr %6, align 8
  %55 = load i32, ptr %7, align 4
  %56 = insertvalue { ptr, i32 } poison, ptr %54, 0
  %57 = insertvalue { ptr, i32 } %56, i32 %55, 1
  resume { ptr, i32 } %57
}