; Function Attrs: mustprogress uwtable
define void @_ZN7mitsuba16MemoryMappedFile6resizeEm(ptr nocapture noundef nonnull readonly align 8 dereferenceable(24) %0, i64 noundef %1) local_unnamed_addr #0 align 2 personality ptr @__gxx_personality_v0 {
  %3 = alloca %"class.std::__1::basic_string", align 8
  %4 = getelementptr inbounds i8, ptr %0, i64 16
  %5 = load ptr, ptr %4, align 8
  %6 = getelementptr inbounds i8, ptr %5, i64 40
  %7 = load ptr, ptr %6, align 8
  %.not = icmp eq ptr %7, null
  br i1 %.not, label %8, label %13

8:                                                ; preds = %2
  %9 = load ptr, ptr @_ZN7mitsuba16MemoryMappedFile7m_classE, align 8
  call void @_ZN10tinyformat6formatIJEEENSt3__112basic_stringIcNS1_11char_traitsIcEENS1_9allocatorIcEEEEPKcDpRKT_(ptr dead_on_unwind nonnull writable sret(%"class.std::__1::basic_string") align 8 %3, ptr noundef nonnull @.str.5)
  invoke void @_ZN7mitsuba6detail5ThrowENS_8LogLevelEPKNS_5ClassEPKciRKNSt3__112basic_stringIcNS7_11char_traitsIcEENS7_9allocatorIcEEEE(i32 noundef 400, ptr noundef %9, ptr noundef nonnull @.str.1, i32 noundef 242, ptr noundef nonnull align 8 dereferenceable(24) %3) #26
          to label %10 unwind label %11

10:                                               ; preds = %8
  unreachable

11:                                               ; preds = %8
  %12 = landingpad { ptr, i32 }
          cleanup
  call void @_ZNSt3__112basic_stringIcNS_11char_traitsIcEENS_9allocatorIcEEED1Ev(ptr noundef nonnull align 8 dereferenceable(24) %3) #24
  resume { ptr, i32 } %12

13:                                               ; preds = %2
  %14 = getelementptr inbounds i8, ptr %5, i64 49
  %15 = load i8, ptr %14, align 1
  %16 = and i8 %15, 1
  store i8 0, ptr %14, align 1
  %17 = load ptr, ptr %4, align 8
  tail call void @_ZN7mitsuba16MemoryMappedFile23MemoryMappedFilePrivate5unmapEv(ptr noundef nonnull align 8 dereferenceable(50) %17)
  %18 = load ptr, ptr %4, align 8
  %19 = tail call noundef zeroext i1 @_ZN7mitsuba10filesystem11resize_fileERKNS0_4pathEm(ptr noundef nonnull align 8 dereferenceable(25) %18, i64 noundef %1) #24
  %20 = load ptr, ptr %4, align 8
  %21 = getelementptr inbounds i8, ptr %20, i64 32
  store i64 %1, ptr %21, align 8
  %22 = load ptr, ptr %4, align 8
  tail call void @_ZN7mitsuba16MemoryMappedFile23MemoryMappedFilePrivate3mapEv(ptr noundef nonnull align 8 dereferenceable(50) %22)
  %23 = load ptr, ptr %4, align 8
  %24 = getelementptr inbounds i8, ptr %23, i64 49
  store i8 %16, ptr %24, align 1
  ret void
}